target datalayout = "e-m:e-p270:32:32-p271:32:32-p272:64:64-i64:64-i128:128-f80:128-n8:16:32:64-S128"
target triple = "x86_64-pc-linux-gnu"

; Function Attrs: nounwind uwtable
define internal i64 @getExponentialRand(ptr noundef %0, i64 noundef %1, i64 noundef %2, double noundef %3) #0 {
  %5 = alloca ptr, align 8
  %6 = alloca i64, align 8
  %7 = alloca i64, align 8
  %8 = alloca double, align 8
  %9 = alloca double, align 8
  %10 = alloca double, align 8
  %11 = alloca double, align 8
  store ptr %0, ptr %5, align 8
  store i64 %1, ptr %6, align 8
  store i64 %2, ptr %7, align 8
  store double %3, ptr %8, align 8
  call void @llvm.lifetime.start.p0(i64 8, ptr %9) #14
  call void @llvm.lifetime.start.p0(i64 8, ptr %10) #14
  call void @llvm.lifetime.start.p0(i64 8, ptr %11) #14
  %12 = load double, ptr %8, align 8
  %13 = fneg double %12
  %14 = call double @exp(double noundef %13) #14
  store double %14, ptr %9, align 8
  %15 = load ptr, ptr %5, align 8
  %16 = call double @pg_prng_double(ptr noundef %15)
  %17 = fsub double 1.000000e+00, %16
  store double %17, ptr %10, align 8
  %18 = load double, ptr %9, align 8
  %19 = load double, ptr %9, align 8
  %20 = fsub double 1.000000e+00, %19
  %21 = load double, ptr %10, align 8
  %22 = call double @llvm.fmuladd.f64(double %20, double %21, double %18)
  %23 = call double @log(double noundef %22) #14
  %24 = fneg double %23
  %25 = load double, ptr %8, align 8
  %26 = fdiv double %24, %25
  store double %26, ptr %11, align 8
  %27 = load i64, ptr %6, align 8
  %28 = load i64, ptr %7, align 8
  %29 = load i64, ptr %6, align 8
  %30 = sub i64 %28, %29
  %31 = add i64 %30, 1
  %32 = sitofp i64 %31 to double
  %33 = load double, ptr %11, align 8
  %34 = fmul double %32, %33
  %35 = fptosi double %34 to i64
  %36 = add i64 %27, %35
  call void @llvm.lifetime.end.p0(i64 8, ptr %11) #14
  call void @llvm.lifetime.end.p0(i64 8, ptr %10) #14
  call void @llvm.lifetime.end.p0(i64 8, ptr %9) #14
  ret i64 %36
}