; Function Attrs: nounwind uwtable
define internal fastcc i64 @getExponentialRand(ptr noundef %0, i64 noundef %1, i64 noundef %2, double noundef %3) unnamed_addr #0 {
  %5 = fneg double %3
  %6 = tail call double @exp(double noundef %5) #25
  %7 = tail call double @pg_prng_double(ptr noundef %0) #25
  %8 = fsub double 1.000000e+00, %7
  %9 = fsub double 1.000000e+00, %6
  %10 = tail call double @llvm.fmuladd.f64(double %9, double %8, double %6)
  %11 = tail call double @log(double noundef %10) #25
  %12 = fneg double %11
  %13 = fdiv double %12, %3
  %reass.sub = sub i64 %2, %1
  %14 = add i64 %reass.sub, 1
  %15 = sitofp i64 %14 to double
  %16 = fmul double %13, %15
  %17 = fptosi double %16 to i64
  %18 = add i64 %1, %17
  ret i64 %18
}